Certificate:
    Data:
        Version: 3 (0x2)
        Serial Number: 1234567890 (0x499602d2)
        Signature Algorithm: sha256WithRSAEncryption
        Issuer: CN = ca.example.com
        Validity
            Not Before: Feb 10 10:31:06 2023 GMT
            Not After : Feb 10 10:31:06 2024 GMT
        Subject: CN = test.example.com
        Subject Public Key Info:
            Public Key Algorithm: rsaEncryption
                RSA Public-Key: (2048 bit)
                Modulus:
                    00:b7:10:8a:a2:69:86:a3:44:76:b1:d0:b1:24:4a:
                    36:0b:d8:8a:db:96:81:37:a3:ec:57:e9:c8:df:a3:
                    3d:00:c2:e6:f1:9a:95:26:43:f0:b1:05:cd:4a:a8:
                    86:4b:ef:3c:f5:5b:ea:ac:d8:41:36:e1:4f:51:a0:
                    e5:eb:8b:52:67:72:fb:cb:4b:2f:e7:0b:e6:86:56:
                    61:6d:da:ea:05:73:e7:1d:16:6e:73:75:6b:0b:ed:
                    3a:4b:6e:9c:d4:21:99:7a:2e:05:1c:af:b7:6b:1b:
                    22:cf:3d:5a:f0:3e:53:99:1e:d7:b7:de:be:1e:d4:
                    fd:36:2e:53:f7:8a:a1:54:0d:3f:5a:94:82:f9:09:
                    b7:d7:c0:a2:86:87:64:66:a6:b6:7a:c2:65:6c:42:
                    a0:4c:eb:d6:44:d2:94:a8:96:e3:5f:c4:9c:d0:64:
                    09:03:c3:3a:61:99:04:d1:7b:61:cb:c0:bf:d0:28:
                    39:9e:6d:bf:9d:d9:ee:be:ff:09:71:10:81:c5:b3:
                    17:a5:76:4e:12:d3:b4:8f:d7:be:fb:3e:1f:40:1e:
                    06:1e:8a:94:61:29:75:aa:8c:55:76:80:99:67:46:
                    69:f3:1a:85:31:15:93:fb:18:f6:d2:46:82:ea:79:
                    a7:a6:15:c2:40:9f:e0:32:f7:8b:58:0a:68:1e:5d:
                    88:75
                Exponent: 65537 (0x10001)
        X509v3 extensions:
            X509v3 Subject Key Identifier: 
                69:37:AB:4B:65:CC:C1:46:A4:DF:9A:25:54:CB:F8:8B:F5:EB:6C:71
            X509v3 Authority Key Identifier: 
                keyid:69:37:AB:4B:65:CC:C1:46:A4:DF:9A:25:54:CB:F8:8B:F5:EB:6C:71

            X509v3 Basic Constraints: critical
                CA:TRUE
    Signature Algorithm: sha256WithRSAEncryption
         00:02:8e:ce:06:42:7d:6d:fa:5a:6e:32:8a:ef:9d:bb:66:a6:
         d6:cb:ab:92:3b:82:4f:69:6e:75:01:d1:61:a2:a8:64:cd:28:
         ce:34:b3:ea:ac:be:a4:8b:e4:21:b6:1d:57:3b:95:15:8c:92:
         c3:65:b5:c8:8f:b0:96:cc:4a:6d:6c:2e:d5:bc:bc:da:2b:dc:
         24:7f:45:5d:79:04:85:96:fd:88:6e:ac:e3:42:c4:d1:e5:5d:
         36:61:ae:95:ed:3a:15:9c:02:ca:70:87:b4:bf:f7:2d:22:6d:
         d0:43:d3:38:91:34:16:4c:3a:10:a6:4f:43:00:05:81:08:98:
         76:11:6b:c0:3a:01:df:3b:02:cd:43:5b:dc:e5:a5:5d:56:26:
         ca:8d:0a:cd:60:17:e3:37:0a:44:5f:ea:b3:b6:6c:24:fa:0c:
         10:5c:a9:0d:05:fc:1b:25:bc:55:22:7a:95:eb:ea:0e:1f:2d:
         29:81:b1:b8:f6:52:6f:94:d1:31:f0:94:77:b0:82:7a:ee:cb:
         38:e5:69:6a:1e:a4:51:13:8f:c7:79:12:6a:28:32:f6:ca:6d:
         84:20:39:0e:98:4d:71:8b:61:c4:6b:22:c7:c9:38:25:14:a6:
         b5:3d:5e:92:86:3e:b6:8e:34:1e:13:7b:df:7a:03:91:de:88:
         19:a6:5b:40:44:93:c0:b5:2a:79:7d:c9:12:ef:df:73:0c:3b:
         3c:49:3d:ea:a2:e8:76:a0:1f:f1:1f:ac:dc:16:46:b0:4c:4f:
         c8:03:9b:bb:b8:6b:54:c4:80:9c:57:d9:0d:d8:b9:7a:2d:27:
         62:6a:ae:1a:0f:92:01:c7:61:63:ea:c1:2d:93:f9:66:78:67:
         42:8a:1e:a7:bd:2d:75:f9:5e:24:d2:a2:1d:61:75:da:b3:e2:
         01:67:fc:32:0a:10:86:16:24:a7:39:1c:69:18:0a:cd:8a:6c:
         21:db:1f:03:ad:4e:6f:58:0a:07:ee:c0:5b:c4:09:d8:e5:0d:
         33:24:28:ee:09:e9:43:91:db:e9:97:85:a6:3e:9f:c3:39:52:
         69:a1:5e:5d:b3:2e:4c:40:1c:8b:15:0c:70:cb:cd:4d:90:05:
         a1:8d:48:53:54:0d:65:43:79:e1:fc:6f:74:b8:cb:10:b7:42:
         91:06:52:84:3a:89:42:96:fd:31:d9:94:42:a8:6d:fe:2d:8c:
         af:6a:74:fa:0a:fd:2c:3a:66:aa:61:4c:d1:cc:38:fb:37:cd:
         38:36:fc:6c:ee:42:77:12:b2:5e:8e:ce:d8:51:67:97:d6:cd:
         44:f0:b0:8e:87:1c:f3:45:41:fb:4c:73:df:4c:28:c1:ca:1c:
         8d:6e:9e:d6:80:ed:7c:29
-----BEGIN CERTIFICATE-----
MIIEBTCCAe2gAwIBAgIESZYC0jANBgkqhkiG9w0BAQsFADAZMRcwFQYDVQQDDA5j
YS5leGFtcGxlLmNvbTAeFw0yMzAyMTAxMDMxMDZaFw0yNDAyMTAxMDMxMDZaMBsx
GTAXBgNVBAMMEHRlc3QuZXhhbXBsZS5jb20wggEiMA0GCSqGSIb3DQEBAQUAA4IB
DwAwggEKAoIBAQC3EIqiaYajRHax0LEkSjYL2IrbloE3o+xX6cjfoz0AwubxmpUm
Q/CxBc1KqIZL7zz1W+qs2EE24U9RoOXri1JncvvLSy/nC+aGVmFt2uoFc+cdFm5z
dWsL7TpLbpzUIZl6LgUcr7drGyLPPVrwPlOZHte33r4e1P02LlP3iqFUDT9alIL5
CbfXwKKGh2RmprZ6wmVsQqBM69ZE0pSoluNfxJzQZAkDwzphmQTRe2HLwL/QKDme
bb+d2e6+/wlxEIHFsxeldk4S07SP1777Ph9AHgYeipRhKXWqjFV2gJlnRmnzGoUx
FZP7GPbSRoLqeaemFcJAn+Ay94tYCmgeXYh1AgMBAAGjUzBRMB0GA1UdDgQWBBRp
N6tLZczBRqTfmiVUy/iL9etscTAfBgNVHSMEGDAWgBRpN6tLZczBRqTfmiVUy/iL
9etscTAPBgNVHRMBAf8EBTADAQH/MA0GCSqGSIb3DQEBCwUAA4ICAQAAAo7OBkJ9
bfpabjKK7527ZqbWy6uSO4JPaW51AdFhoqhkzSjONLPqrL6ki+Qhth1XO5UVjJLD
ZbXIj7CWzEptbC7VvLzaK9wkf0VdeQSFlv2IbqzjQsTR5V02Ya6V7ToVnALKcIe0
v/ctIm3QQ9M4kTQWTDoQpk9DAAWBCJh2EWvAOgHfOwLNQ1vc5aVdVibKjQrNYBfj
NwpEX+qztmwk+gwQXKkNBfwbJbxVInqV6+oOHy0pgbG49lJvlNEx8JR3sIJ67ss4
5WlqHqRRE4/HeRJqKDL2ym2EIDkOmE1xi2HEayLHyTglFKa1PV6Shj62jjQeE3vf
egOR3ogZpltARJPAtSp5fckS799zDDs8ST3qouh2oB/xH6zcFkawTE/IA5u7uGtU
xICcV9kN2Ll6LSdiaq4aD5IBx2Fj6sEtk/lmeGdCih6nvS11+V4k0qIdYXXas+IB
Z/wyChCGFiSnORxpGArNimwh2x8DrU5vWAoH7sBbxAnY5Q0zJCjuCelDkdvpl4Wm
Pp/DOVJpoV5dsy5MQByLFQxwy81NkAWhjUhTVA1lQ3nh/G90uMsQt0KRBlKEOolC
lv0x2ZRCqG3+LYyvanT6Cv0sOmaqYUzRzDj7N804Nvxs7kJ3ErJejs7YUWeX1s1E
8LCOhxzzRUH7THPfTCjByhyNbp7WgO18KQ==
-----END CERTIFICATE-----
