Certificate:
    Data:
        Version: 1 (0x0)
        Serial Number:
            0a:71:59:aa:a6:81:f9:37:f0:30:7f:46:85:d6:ce:b0:0d:15:9d:3b
        Signature Algorithm: NULL
        Issuer: CN = ca.example.com
        Validity
            Not Before: Feb 10 10:31:08 2023 GMT
            Not After : Mar 12 10:31:08 2023 GMT
        Subject: CN = b.example.com
        Subject Public Key Info:
            Public Key Algorithm: rsaEncryption
                RSA Public-Key: (4096 bit)
                Modulus:
                    00:df:51:b3:fd:55:0d:6e:fb:d9:c5:2c:6a:80:be:
                    5e:e4:4c:be:81:20:02:d3:c5:1e:d3:cc:25:92:f1:
                    42:9f:b1:05:20:e8:09:1b:52:d5:47:e3:0c:bf:20:
                    68:e7:37:be:10:65:9e:18:c9:e2:fb:ef:25:aa:3a:
                    f5:d3:80:fa:c0:6a:5d:ea:f8:a7:48:3a:36:b8:a9:
                    00:1e:c8:ad:34:3f:71:2f:80:3e:ae:84:56:f7:78:
                    e0:5a:a0:0c:83:fd:60:d2:10:bd:27:86:bc:6e:83:
                    4a:34:b9:ea:63:47:fa:11:3b:70:a4:f3:44:35:27:
                    ee:ee:b1:0f:47:97:3d:63:1a:86:fa:3d:06:3d:59:
                    1d:6f:55:e3:c5:e6:2b:8c:f6:d0:87:81:29:95:10:
                    9a:41:75:95:c9:9c:33:97:93:9b:f1:41:be:bc:a4:
                    ed:62:db:d0:d7:f0:2e:e2:8f:81:f9:63:7f:93:f4:
                    6a:80:fe:a2:e1:e0:3c:01:d0:6d:2a:95:67:a7:f7:
                    32:8e:c0:81:29:ae:42:39:20:8b:24:80:56:f4:70:
                    16:9d:9e:20:33:41:fc:26:f9:6a:e5:e9:a1:2f:70:
                    68:c8:4b:8e:f7:7d:37:4b:d6:43:a0:07:74:2a:3a:
                    e6:86:b1:89:74:7a:a6:88:a0:8b:ab:d5:51:20:e8:
                    9d:a9:b1:ed:71:0e:c0:47:bd:f4:5e:8e:62:19:ee:
                    60:9c:85:50:bb:ad:48:a6:4a:47:9a:8e:a8:5d:24:
                    29:42:0b:26:4a:6b:b9:e8:f2:92:75:b5:a6:50:77:
                    8e:c0:01:ef:33:49:07:9a:3c:e3:f8:1a:ae:a6:b0:
                    1a:1c:a2:10:fa:50:9b:bc:70:49:28:96:b5:39:50:
                    fb:a7:93:b1:9e:2d:cc:09:c2:27:2e:e3:83:ed:5a:
                    9b:88:ab:53:17:c7:be:c7:8e:b6:4b:55:aa:45:56:
                    50:be:5f:8b:00:be:2b:c3:20:fe:81:f0:74:62:10:
                    68:16:b5:52:24:49:63:1d:9d:80:83:16:1c:5c:aa:
                    4a:0c:11:e6:4f:d6:66:20:4c:83:ea:41:84:1f:8d:
                    3a:9c:3a:0b:07:81:1d:bc:d9:70:ac:d7:35:40:26:
                    3c:61:91:69:7d:d0:17:87:e5:a6:dd:5b:b8:46:e4:
                    e2:e0:a8:46:98:af:72:dc:82:2e:a7:1f:f8:82:ac:
                    7e:09:15:f8:dc:86:f2:ee:13:04:75:cd:85:43:96:
                    05:aa:a9:1d:87:16:bf:6e:64:e9:5e:04:41:46:aa:
                    ab:f4:82:ae:6d:b6:8f:96:4f:60:d0:b1:db:11:8c:
                    c1:7a:34:24:b6:cd:2f:26:56:ee:cc:da:da:30:ef:
                    04:86:b3
                Exponent: 65537 (0x10001)
    Signature Algorithm: NULL
-----BEGIN CERTIFICATE-----
MIIEuDCCAqACFGkBEHFby0OclMuH4+c+zjIdFjn+MA0GCSqGSIb3DQEBCwUAMBkx
FzAVBgNVBAMMDmNhLmV4YW1wbGUuY29tMB4XDTIzMDIxMDEwMzEwOFoXDTIzMDMx
MjEwMzEwOFowGDEWMBQGA1UEAwwNYi5leGFtcGxlLmNvbTCCAiIwDQYJKoZIhvcN
AQEBBQADggIPADCCAgoCggIBAN9Rs/1VDW772cUsaoC+XuRMvoEgAtPFHtPMJZLx
Qp+xBSDoCRtS1UfjDL8gaOc3vhBlnhjJ4vvvJao69dOA+sBqXer4p0g6NripAB7I
rTQ/cS+APq6EVvd44FqgDIP9YNIQvSeGvG6DSjS56mNH+hE7cKTzRDUn7u6xD0eX
PWMahvo9Bj1ZHW9V48XmK4z20IeBKZUQmkF1lcmcM5eTm/FBvryk7WLb0NfwLuKP
gfljf5P0aoD+ouHgPAHQbSqVZ6f3Mo7AgSmuQjkgiySAVvRwFp2eIDNB/Cb5auXp
oS9waMhLjvd9N0vWQ6AHdCo65oaxiXR6poigi6vVUSDonamx7XEOwEe99F6OYhnu
YJyFULutSKZKR5qOqF0kKUILJkpruejyknW1plB3jsAB7zNJB5o84/garqawGhyi
EPpQm7xwSSiWtTlQ+6eTsZ4tzAnCJy7jg+1am4irUxfHvseOtktVqkVWUL5fiwC+
K8Mg/oHwdGIQaBa1UiRJYx2dgIMWHFyqSgwR5k/WZiBMg+pBhB+NOpw6CweBHbzZ
cKzXNUAmPGGRaX3QF4flpt1buEbk4uCoRpivctyCLqcf+IKsfgkV+NyG8u4TBHXN
hUOWBaqpHYcWv25k6V4EQUaqq/SCrm22j5ZPYNCx2xGMwXo0JLbNLyZW7sza2jDv
BIazAgMBAAEwDQYJKoZIhvcNAQELBQADggIBAI2Nut3/c/UlQRiL/gTNb/6UzJY0
lpkRKeNg8AYowyXXG3z5wslaGh9FquLeJmwreOQYTh2W073ncogqTE6kRe6yBA+L
1CZGGPYYbrx6sXDgqvjx03skkh/to4G18+ZM+SrCefv44NkVeeJC7wINoBE8OaNg
Sla0gMZF+KC6n7IHdWz/bTTWu/hmv6+jy9nahRCwGgq8lNXwdo6e/32tCI9+eABU
bvKe3LenrRfGg4hwCai4nGkqaPgLTlxSrTR9JIRGtjc1uDmy+sDU+FjbL38FnzrS
63+KSrvJWRPfQRYvDiDrdl/tQt0NmpU+hrZCGyXX8/hI/hKPlAF8g0j22wUMGkhg
JrEDBFW6DYIHQjsP1Y0pkxhJRWsk85sdxGUqwyB7jJMAZGlRLFiiSQ30I3VqAle7
I5jiiTNu2mtvBkjHEodLrkw9inQBzHQQyXolOKN6tEeG+fFMfQWgqigVpvDwzvZL
+u7EgUQKfc0wU4dEFWrN8yeYzggKIwLuR1B98kDzRJzK9C4V0KJAjIl0gdRx7ZdS
UiuadTydtOXgMRAoUm84BBTuonnJiCxsxL9cOrVhv8/uWsR2/3iGvD9EKXrBgeV0
H64baKC24IZs0pNbwTjFShakq5gILPFJV0si6JzFd3WdHsmV3vKuf3ze2vsqwedE
nFqy9EYF95tJh5Zp
-----END CERTIFICATE-----
